target datalayout = "e-m:e-p270:32:32-p271:32:32-p272:64:64-i64:64-i128:128-f80:128-n8:16:32:64-S128"
target triple = "x86_64-unknown-linux-gnu"

%"struct.std::_Vector_base" = type { %"struct.std::_Vector_base<int, std::allocator<int>>::_Vector_impl" }
%"struct.std::_Vector_base<int, std::allocator<int>>::_Vector_impl" = type { %"struct.std::_Vector_base<int, std::allocator<int>>::_Vector_impl_data" }
%"struct.std::_Vector_base<int, std::allocator<int>>::_Vector_impl_data" = type { ptr, ptr, ptr }

@_ZN4base13HistogramBase15kSampleType_MAXE = external constant i32, align 4

; Function Attrs: mustprogress nounwind uwtable
define linkonce_odr dso_local noundef nonnull align 4 dereferenceable(4) ptr @_ZNKSt6vectorIiSaIiEEixEm(ptr noundef nonnull align 8 dereferenceable(24) %this, i64 noundef %__n) #2 comdat align 2 {
entry:
  %this.addr = alloca ptr, align 8
  %__n.addr = alloca i64, align 8
  store ptr %this, ptr %this.addr, align 8
  store i64 %__n, ptr %__n.addr, align 8
  %this1 = load ptr, ptr %this.addr, align 8
  %_M_impl = getelementptr inbounds %"struct.std::_Vector_base", ptr %this1, i32 0, i32 0
  %_M_start = getelementptr inbounds %"struct.std::_Vector_base<int, std::allocator<int>>::_Vector_impl_data", ptr %_M_impl, i32 0, i32 0
  %0 = load ptr, ptr %_M_start, align 8
  %1 = load i64, ptr %__n.addr, align 8
  %add.ptr = getelementptr inbounds i32, ptr %0, i64 %1
  ret ptr %add.ptr
}

; Function Attrs: mustprogress nounwind uwtable
define linkonce_odr dso_local noundef i64 @_ZNKSt6vectorIiSaIiEE4sizeEv(ptr noundef nonnull align 8 dereferenceable(24) %this) #2 comdat align 2 {
entry:
  %this.addr = alloca ptr, align 8
  store ptr %this, ptr %this.addr, align 8
  %this1 = load ptr, ptr %this.addr, align 8
  %_M_impl = getelementptr inbounds %"struct.std::_Vector_base", ptr %this1, i32 0, i32 0
  %_M_finish = getelementptr inbounds %"struct.std::_Vector_base<int, std::allocator<int>>::_Vector_impl_data", ptr %_M_impl, i32 0, i32 1
  %0 = load ptr, ptr %_M_finish, align 8
  %_M_impl2 = getelementptr inbounds %"struct.std::_Vector_base", ptr %this1, i32 0, i32 0
  %_M_start = getelementptr inbounds %"struct.std::_Vector_base<int, std::allocator<int>>::_Vector_impl_data", ptr %_M_impl2, i32 0, i32 0
  %1 = load ptr, ptr %_M_start, align 8
  %sub.ptr.lhs.cast = ptrtoint ptr %0 to i64
  %sub.ptr.rhs.cast = ptrtoint ptr %1 to i64
  %sub.ptr.sub = sub i64 %sub.ptr.lhs.cast, %sub.ptr.rhs.cast
  %sub.ptr.div = sdiv exact i64 %sub.ptr.sub, 4
  ret i64 %sub.ptr.div
}

; Function Attrs: mustprogress nounwind uwtable
define dso_local noundef zeroext i1 @_ZN4base15CustomHistogram20ValidateCustomRangesERKSt6vectorIiSaIiEE(ptr noundef nonnull align 8 dereferenceable(24) %custom_ranges) #2 align 2 {
entry:
  %retval = alloca i1, align 1
  %custom_ranges.addr = alloca ptr, align 8
  %has_valid_range = alloca i8, align 1
  %i = alloca i32, align 4
  %sample = alloca i32, align 4
  store ptr %custom_ranges, ptr %custom_ranges.addr, align 8
  store i8 0, ptr %has_valid_range, align 1
  store i32 0, ptr %i, align 4
  br label %for.cond

for.cond:                                         ; preds = %for.inc, %entry
  %0 = load i32, ptr %i, align 4
  %conv = zext i32 %0 to i64
  %1 = load ptr, ptr %custom_ranges.addr, align 8
  %call = call noundef i64 @_ZNKSt6vectorIiSaIiEE4sizeEv(ptr noundef nonnull align 8 dereferenceable(24) %1) #12
  %cmp = icmp ult i64 %conv, %call
  br i1 %cmp, label %for.body, label %for.end

for.body:                                         ; preds = %for.cond
  %2 = load ptr, ptr %custom_ranges.addr, align 8
  %3 = load i32, ptr %i, align 4
  %conv1 = zext i32 %3 to i64
  %call2 = call noundef nonnull align 4 dereferenceable(4) ptr @_ZNKSt6vectorIiSaIiEEixEm(ptr noundef nonnull align 8 dereferenceable(24) %2, i64 noundef %conv1) #12
  %4 = load i32, ptr %call2, align 4
  store i32 %4, ptr %sample, align 4
  %5 = load i32, ptr %sample, align 4
  %cmp3 = icmp slt i32 %5, 0
  br i1 %cmp3, label %if.then, label %lor.lhs.false

lor.lhs.false:                                    ; preds = %for.body
  %6 = load i32, ptr %sample, align 4
  %7 = load i32, ptr @_ZN4base13HistogramBase15kSampleType_MAXE, align 4
  %sub = sub nsw i32 %7, 1
  %cmp4 = icmp sgt i32 %6, %sub
  br i1 %cmp4, label %if.then, label %if.end

if.then:                                          ; preds = %lor.lhs.false, %for.body
  store i1 false, ptr %retval, align 1
  br label %return

if.end:                                           ; preds = %lor.lhs.false
  %8 = load i32, ptr %sample, align 4
  %cmp5 = icmp ne i32 %8, 0
  br i1 %cmp5, label %if.then6, label %if.end7

if.then6:                                         ; preds = %if.end
  store i8 1, ptr %has_valid_range, align 1
  br label %if.end7

if.end7:                                          ; preds = %if.then6, %if.end
  br label %for.inc

for.inc:                                          ; preds = %if.end7
  %9 = load i32, ptr %i, align 4
  %inc = add i32 %9, 1
  store i32 %inc, ptr %i, align 4
  br label %for.cond, !llvm.loop !16

for.end:                                          ; preds = %for.cond
  %10 = load i8, ptr %has_valid_range, align 1
  %tobool = trunc i8 %10 to i1
  store i1 %tobool, ptr %retval, align 1
  br label %return

return:                                           ; preds = %for.end, %if.then
  %11 = load i1, ptr %retval, align 1
  ret i1 %11
}