; Function Attrs: mustprogress nofree norecurse nosync nounwind willreturn memory(read, inaccessiblemem: none) uwtable
define dso_local noundef zeroext i1 @_ZN4base15CustomHistogram20ValidateCustomRangesERKSt6vectorIiSaIiEE(ptr nocapture noundef nonnull readonly align 8 dereferenceable(24) %custom_ranges) local_unnamed_addr #9 align 2 {
entry:
  %_M_finish.i = getelementptr inbounds i8, ptr %custom_ranges, i64 8
  %0 = load ptr, ptr %_M_finish.i, align 8
  %1 = load ptr, ptr %custom_ranges, align 8
  %sub.ptr.lhs.cast.i = ptrtoint ptr %0 to i64
  %sub.ptr.rhs.cast.i = ptrtoint ptr %1 to i64
  %sub.ptr.sub.i = sub i64 %sub.ptr.lhs.cast.i, %sub.ptr.rhs.cast.i
  %sub.ptr.div.i = ashr exact i64 %sub.ptr.sub.i, 2
  %cmp7.not = icmp eq ptr %0, %1
  br i1 %cmp7.not, label %return, label %for.body.lr.ph

for.body.lr.ph:                                   ; preds = %entry
  %2 = load i32, ptr @_ZN4base13HistogramBase15kSampleType_MAXE, align 4
  br label %for.body

for.body:                                         ; preds = %for.body.lr.ph, %if.end
  %conv10 = phi i64 [ 0, %for.body.lr.ph ], [ %conv, %if.end ]
  %i.09 = phi i32 [ 0, %for.body.lr.ph ], [ %inc, %if.end ]
  %has_valid_range.08 = phi i8 [ 0, %for.body.lr.ph ], [ %spec.select, %if.end ]
  %add.ptr.i = getelementptr inbounds i32, ptr %1, i64 %conv10
  %3 = load i32, ptr %add.ptr.i, align 4
  %cmp3 = icmp sgt i32 %3, -1
  %cmp4.not = icmp slt i32 %3, %2
  %or.cond = select i1 %cmp3, i1 %cmp4.not, i1 false
  br i1 %or.cond, label %if.end, label %return

if.end:                                           ; preds = %for.body
  %cmp5.not = icmp eq i32 %3, 0
  %spec.select = select i1 %cmp5.not, i8 %has_valid_range.08, i8 1
  %inc = add i32 %i.09, 1
  %conv = zext i32 %inc to i64
  %cmp = icmp ugt i64 %sub.ptr.div.i, %conv
  br i1 %cmp, label %for.body, label %for.end.loopexit, !llvm.loop !38

for.end.loopexit:                                 ; preds = %if.end
  %4 = and i8 %spec.select, 1
  %5 = icmp ne i8 %4, 0
  br label %return

return:                                           ; preds = %for.body, %entry, %for.end.loopexit
  %retval.0 = phi i1 [ false, %entry ], [ %5, %for.end.loopexit ], [ false, %for.body ]
  ret i1 %retval.0
}